target datalayout = "e-m:e-p270:32:32-p271:32:32-p272:64:64-i64:64-i128:128-f80:128-n8:16:32:64-S128"
target triple = "x86_64-pc-linux-gnu"

%struct.client = type { i64, i64, ptr, i8, i8, i8, i8, i32, ptr, ptr, ptr, ptr, ptr, i64, i64, i32, ptr, i32, i32, ptr, i64, ptr, ptr, ptr, ptr, ptr, i32, i32, i64, ptr, i64, ptr, i64, i64, i64, i32, ptr, i64, i64, i32, i32, i32, i32, i64, i64, ptr, i64, i64, i64, i64, i64, i64, i64, i64, [41 x i8], i32, ptr, i32, i32, i64, %struct.multiState, %struct.blockingState, i64, ptr, ptr, ptr, ptr, ptr, ptr, ptr, ptr, ptr, ptr, ptr, ptr, ptr, ptr, i64, ptr, i64, i32, ptr, ptr, ptr, i64, %struct.listNode, i64, i64, i32, i64, ptr }
%struct.multiState = type { ptr, i32, i32, i32, i64, i32 }
%struct.blockingState = type { i32, i64, i32, ptr, i32, i32, i64, ptr, ptr, i64 }
%struct.listNode = type { ptr, ptr, ptr }

@.str.5 = private unnamed_addr constant [6 x i8] c"-ERR \00", align 1
@.str.6 = private unnamed_addr constant [3 x i8] c"\0D\0A\00", align 1
@.str.18 = private unnamed_addr constant [2 x i8] c"+\00", align 1
@.str.98 = private unnamed_addr constant [41 x i8] c"can only reset normal client connections\00", align 1
@.str.99 = private unnamed_addr constant [6 x i8] c"RESET\00", align 1

; Function Attrs: nounwind uwtable
define dso_local void @addReplyStatusLength(ptr noundef %0, ptr noundef %1, i64 noundef %2) #0 {
  %4 = alloca ptr, align 8
  %5 = alloca ptr, align 8
  %6 = alloca i64, align 8
  store ptr %0, ptr %4, align 8, !tbaa !24
  store ptr %1, ptr %5, align 8, !tbaa !5
  store i64 %2, ptr %6, align 8, !tbaa !20
  %7 = load ptr, ptr %4, align 8, !tbaa !24
  call void @addReplyProto(ptr noundef %7, ptr noundef @.str.18, i64 noundef 1)
  %8 = load ptr, ptr %4, align 8, !tbaa !24
  %9 = load ptr, ptr %5, align 8, !tbaa !5
  %10 = load i64, ptr %6, align 8, !tbaa !20
  call void @addReplyProto(ptr noundef %8, ptr noundef %9, i64 noundef %10)
  %11 = load ptr, ptr %4, align 8, !tbaa !24
  call void @addReplyProto(ptr noundef %11, ptr noundef @.str.6, i64 noundef 2)
  ret void
}

; Function Attrs: nounwind uwtable
define dso_local void @addReplyErrorLength(ptr noundef %0, ptr noundef %1, i64 noundef %2) #0 {
  %4 = alloca ptr, align 8
  %5 = alloca ptr, align 8
  %6 = alloca i64, align 8
  store ptr %0, ptr %4, align 8, !tbaa !24
  store ptr %1, ptr %5, align 8, !tbaa !5
  store i64 %2, ptr %6, align 8, !tbaa !20
  %7 = load i64, ptr %6, align 8, !tbaa !20
  %8 = icmp ne i64 %7, 0
  br i1 %8, label %9, label %15

9:                                                ; preds = %3
  %10 = load ptr, ptr %5, align 8, !tbaa !5
  %11 = getelementptr inbounds i8, ptr %10, i64 0
  %12 = load i8, ptr %11, align 1, !tbaa !16
  %13 = sext i8 %12 to i32
  %14 = icmp ne i32 %13, 45
  br i1 %14, label %15, label %17

15:                                               ; preds = %9, %3
  %16 = load ptr, ptr %4, align 8, !tbaa !24
  call void @addReplyProto(ptr noundef %16, ptr noundef @.str.5, i64 noundef 5)
  br label %17

17:                                               ; preds = %15, %9
  %18 = load ptr, ptr %4, align 8, !tbaa !24
  %19 = load ptr, ptr %5, align 8, !tbaa !5
  %20 = load i64, ptr %6, align 8, !tbaa !20
  call void @addReplyProto(ptr noundef %18, ptr noundef %19, i64 noundef %20)
  %21 = load ptr, ptr %4, align 8, !tbaa !24
  call void @addReplyProto(ptr noundef %21, ptr noundef @.str.6, i64 noundef 2)
  ret void
}

; Function Attrs: nounwind uwtable
define dso_local void @addReplyStatus(ptr noundef %0, ptr noundef %1) #0 {
  %3 = alloca ptr, align 8
  %4 = alloca ptr, align 8
  store ptr %0, ptr %3, align 8, !tbaa !24
  store ptr %1, ptr %4, align 8, !tbaa !5
  %5 = load ptr, ptr %3, align 8, !tbaa !24
  %6 = load ptr, ptr %4, align 8, !tbaa !5
  %7 = load ptr, ptr %4, align 8, !tbaa !5
  %8 = call i64 @strlen(ptr noundef %7) #20
  call void @addReplyStatusLength(ptr noundef %5, ptr noundef %6, i64 noundef %8)
  ret void
}

; Function Attrs: nounwind uwtable
define dso_local void @addReplyError(ptr noundef %0, ptr noundef %1) #0 {
  %3 = alloca ptr, align 8
  %4 = alloca ptr, align 8
  store ptr %0, ptr %3, align 8, !tbaa !24
  store ptr %1, ptr %4, align 8, !tbaa !5
  %5 = load ptr, ptr %3, align 8, !tbaa !24
  %6 = load ptr, ptr %4, align 8, !tbaa !5
  %7 = load ptr, ptr %4, align 8, !tbaa !5
  %8 = call i64 @strlen(ptr noundef %7) #20
  call void @addReplyErrorLength(ptr noundef %5, ptr noundef %6, i64 noundef %8)
  %9 = load ptr, ptr %3, align 8, !tbaa !24
  %10 = load ptr, ptr %4, align 8, !tbaa !5
  %11 = load ptr, ptr %4, align 8, !tbaa !5
  %12 = call i64 @strlen(ptr noundef %11) #20
  call void @afterErrorReply(ptr noundef %9, ptr noundef %10, i64 noundef %12, i32 noundef 0)
  ret void
}

; Function Attrs: nounwind uwtable
define dso_local void @resetCommand(ptr noundef %0) #0 {
  %2 = alloca ptr, align 8
  %3 = alloca i64, align 8
  %4 = alloca i32, align 4
  store ptr %0, ptr %2, align 8, !tbaa !24
  call void @llvm.lifetime.start.p0(i64 8, ptr %3) #16
  %5 = load ptr, ptr %2, align 8, !tbaa !24
  %6 = getelementptr inbounds nuw %struct.client, ptr %5, i32 0, i32 1
  %7 = load i64, ptr %6, align 8, !tbaa !104
  store i64 %7, ptr %3, align 8, !tbaa !20
  %8 = load i64, ptr %3, align 8, !tbaa !20
  %9 = and i64 %8, 4
  %10 = icmp ne i64 %9, 0
  br i1 %10, label %11, label %14

11:                                               ; preds = %1
  %12 = load i64, ptr %3, align 8, !tbaa !20
  %13 = and i64 %12, -6
  store i64 %13, ptr %3, align 8, !tbaa !20
  br label %14

14:                                               ; preds = %11, %1
  %15 = load i64, ptr %3, align 8, !tbaa !20
  %16 = and i64 %15, 134217731
  %17 = icmp ne i64 %16, 0
  br i1 %17, label %18, label %20

18:                                               ; preds = %14
  %19 = load ptr, ptr %2, align 8, !tbaa !24
  call void @addReplyError(ptr noundef %19, ptr noundef @.str.98)
  store i32 1, ptr %4, align 4
  br label %23

20:                                               ; preds = %14
  %21 = load ptr, ptr %2, align 8, !tbaa !24
  call void @clearClientConnectionState(ptr noundef %21)
  %22 = load ptr, ptr %2, align 8, !tbaa !24
  call void @addReplyStatus(ptr noundef %22, ptr noundef @.str.99)
  store i32 0, ptr %4, align 4
  br label %23

23:                                               ; preds = %20, %18
  call void @llvm.lifetime.end.p0(i64 8, ptr %3) #16
  %24 = load i32, ptr %4, align 4
  switch i32 %24, label %26 [
    i32 0, label %25
    i32 1, label %25
  ]

25:                                               ; preds = %23, %23
  ret void

26:                                               ; preds = %23
  unreachable
}