; Function Attrs: nounwind uwtable
define dso_local void @resetCommand(ptr noundef %0) local_unnamed_addr #0 {
  %2 = getelementptr inbounds nuw i8, ptr %0, i64 8
  %3 = load i64, ptr %2, align 8, !tbaa !86
  %4 = and i64 %3, 4
  %.not = icmp eq i64 %4, 0
  %.v = select i1 %.not, i64 134217731, i64 134217730
  %5 = and i64 %.v, %3
  %.not6 = icmp eq i64 %5, 0
  br i1 %.not6, label %6, label %addReplyError.exit

addReplyError.exit:                               ; preds = %1
  tail call void @addReplyProto(ptr noundef nonnull %0, ptr noundef nonnull @.str.5, i64 noundef 5)
  tail call void @addReplyProto(ptr noundef nonnull %0, ptr noundef nonnull readonly @.str.98, i64 noundef 40)
  tail call void @addReplyProto(ptr noundef nonnull %0, ptr noundef nonnull @.str.6, i64 noundef 2)
  tail call void @afterErrorReply(ptr noundef nonnull %0, ptr noundef nonnull @.str.98, i64 noundef 40, i32 noundef 0)
  br label %7

6:                                                ; preds = %1
  tail call void @clearClientConnectionState(ptr noundef nonnull %0)
  tail call void @addReplyProto(ptr noundef nonnull %0, ptr noundef nonnull @.str.18, i64 noundef 1)
  tail call void @addReplyProto(ptr noundef nonnull %0, ptr noundef nonnull readonly @.str.99, i64 noundef 5)
  tail call void @addReplyProto(ptr noundef nonnull %0, ptr noundef nonnull @.str.6, i64 noundef 2)
  br label %7

7:                                                ; preds = %6, %addReplyError.exit
  ret void
}